target datalayout = "e-m:e-p270:32:32-p271:32:32-p272:64:64-i64:64-i128:128-f80:128-n8:16:32:64-S128"
target triple = "x86_64-pc-linux-gnu"

%class.SearchFrame = type { %class.AccordionFrame, ptr, ptr, ptr, %class.QString }
%class.AccordionFrame = type { %class.QFrame, i32, ptr }
%class.QFrame = type { %class.QWidget }
%class.QWidget = type { %class.QObject, %class.QPaintDevice.base, ptr }
%class.QObject = type { ptr, %class.QScopedPointer }
%class.QScopedPointer = type { ptr }
%class.QPaintDevice.base = type <{ ptr, i16 }>
%class.QString = type { %struct.QArrayDataPointer }
%struct.QArrayDataPointer = type { ptr, ptr, i64 }
%class.Ui_SearchFrame = type { ptr, ptr, ptr, ptr, ptr, ptr, ptr, ptr, ptr, ptr, ptr, ptr, ptr, ptr, ptr, ptr, ptr, ptr }

; Function Attrs: mustprogress uwtable
define linkonce_odr void @_ZN7QWidget8setFocusEv(ptr noundef nonnull align 8 dereferenceable(40) %0) #0 comdat align 2 {
  %2 = alloca ptr, align 8
  store ptr %0, ptr %2, align 8
  %3 = load ptr, ptr %2, align 8
  call void @_ZN7QWidget8setFocusEN2Qt11FocusReasonE(ptr noundef nonnull align 8 dereferenceable(40) %3, i32 noundef 7)
  ret void
}

; Function Attrs: mustprogress uwtable
define void @_ZN11SearchFrame8setFocusEv(ptr noundef nonnull align 8 dereferenceable(104) %0) #0 align 2 {
  %2 = alloca ptr, align 8
  store ptr %0, ptr %2, align 8
  %3 = load ptr, ptr %2, align 8
  %4 = getelementptr inbounds %class.SearchFrame, ptr %3, i32 0, i32 1
  %5 = load ptr, ptr %4, align 8
  %6 = getelementptr inbounds %class.Ui_SearchFrame, ptr %5, i32 0, i32 6
  %7 = load ptr, ptr %6, align 8
  call void @_ZN7QWidget8setFocusEv(ptr noundef nonnull align 8 dereferenceable(40) %7)
  %8 = getelementptr inbounds %class.SearchFrame, ptr %3, i32 0, i32 1
  %9 = load ptr, ptr %8, align 8
  %10 = getelementptr inbounds %class.Ui_SearchFrame, ptr %9, i32 0, i32 6
  %11 = load ptr, ptr %10, align 8
  call void @_ZN9QLineEdit9selectAllEv(ptr noundef nonnull align 8 dereferenceable(40) %11)
  ret void
}